target datalayout = "e-m:e-p270:32:32-p271:32:32-p272:64:64-i64:64-i128:128-f80:128-n8:16:32:64-S128"
target triple = "x86_64-pc-linux-gnu"

; Function Attrs: null_pointer_is_valid sspstrong uwtable
define internal i32 @get_null_terminated_string_length(ptr noundef %0, i32 noundef %1) #0 {
  %3 = alloca i32, align 4
  %4 = alloca ptr, align 8
  %5 = alloca i32, align 4
  %6 = alloca i32, align 4
  %7 = alloca i32, align 4
  %8 = alloca i32, align 4
  %9 = alloca i8, align 1
  store ptr %0, ptr %4, align 8
  store i32 %1, ptr %5, align 4
  call void @llvm.lifetime.start.p0(i64 4, ptr %6) #8
  store i32 32767, ptr %6, align 4
  call void @llvm.lifetime.start.p0(i64 4, ptr %7) #8
  store i32 0, ptr %7, align 4
  br label %10

10:                                               ; preds = %30, %2
  %11 = load i32, ptr %7, align 4
  %12 = icmp slt i32 %11, 32767
  br i1 %12, label %14, label %13

13:                                               ; preds = %10
  store i32 2, ptr %8, align 4
  br label %33

14:                                               ; preds = %10
  call void @llvm.lifetime.start.p0(i64 1, ptr %9) #8
  %15 = load ptr, ptr %4, align 8
  %16 = load i32, ptr %5, align 4
  %17 = load i32, ptr %7, align 4
  %18 = add i32 %16, %17
  %19 = call zeroext i8 @tvb_get_uint8(ptr noundef %15, i32 noundef %18)
  store i8 %19, ptr %9, align 1
  %20 = load i8, ptr %9, align 1
  %21 = zext i8 %20 to i32
  %22 = icmp eq i32 %21, 0
  br i1 %22, label %23, label %26

23:                                               ; preds = %14
  %24 = load i32, ptr %7, align 4
  %25 = add i32 %24, 1
  store i32 %25, ptr %3, align 4
  store i32 1, ptr %8, align 4
  br label %27

26:                                               ; preds = %14
  store i32 0, ptr %8, align 4
  br label %27

27:                                               ; preds = %26, %23
  call void @llvm.lifetime.end.p0(i64 1, ptr %9) #8
  %28 = load i32, ptr %8, align 4
  switch i32 %28, label %33 [
    i32 0, label %29
  ]

29:                                               ; preds = %27
  br label %30

30:                                               ; preds = %29
  %31 = load i32, ptr %7, align 4
  %32 = add i32 %31, 1
  store i32 %32, ptr %7, align 4
  br label %10, !llvm.loop !114

33:                                               ; preds = %27, %13
  call void @llvm.lifetime.end.p0(i64 4, ptr %7) #8
  %34 = load i32, ptr %8, align 4
  switch i32 %34, label %36 [
    i32 2, label %35
  ]

35:                                               ; preds = %33
  store i32 0, ptr %3, align 4
  store i32 1, ptr %8, align 4
  br label %36

36:                                               ; preds = %35, %33
  call void @llvm.lifetime.end.p0(i64 4, ptr %6) #8
  %37 = load i32, ptr %3, align 4
  ret i32 %37
}

; Function Attrs: null_pointer_is_valid sspstrong uwtable
define internal void @add_cstring(ptr noundef %0, ptr noundef %1) #0 {
  %3 = alloca ptr, align 8
  %4 = alloca ptr, align 8
  %5 = alloca i32, align 4
  store ptr %0, ptr %3, align 8
  store ptr %1, ptr %4, align 8
  call void @llvm.lifetime.start.p0(i64 4, ptr %5) #8
  %6 = load ptr, ptr %3, align 8
  %7 = call ptr @ptvcursor_tvbuff(ptr noundef %6)
  %8 = load ptr, ptr %3, align 8
  %9 = call i32 @ptvcursor_current_offset(ptr noundef %8)
  %10 = call i32 @get_null_terminated_string_length(ptr noundef %7, i32 noundef %9)
  store i32 %10, ptr %5, align 4
  %11 = load ptr, ptr %3, align 8
  %12 = load ptr, ptr %4, align 8
  %13 = load i32, ptr %12, align 4
  %14 = load i32, ptr %5, align 4
  %15 = call ptr @ptvcursor_add(ptr noundef %11, i32 noundef %13, i32 noundef %14, i32 noundef 2)
  call void @llvm.lifetime.end.p0(i64 4, ptr %5) #8
  ret void
}