; Function Attrs: null_pointer_is_valid sspstrong uwtable
define internal fastcc void @add_cstring(ptr noundef %0, ptr noundef readonly captures(none) %1) unnamed_addr #0 {
  %3 = tail call ptr @ptvcursor_tvbuff(ptr noundef %0)
  %4 = tail call i32 @ptvcursor_current_offset(ptr noundef %0)
  br label %5

5:                                                ; preds = %6, %2
  %.012.i = phi i32 [ 0, %2 ], [ %9, %6 ]
  %exitcond.i = icmp eq i32 %.012.i, 32767
  br i1 %exitcond.i, label %get_null_terminated_string_length.exit, label %6

6:                                                ; preds = %5
  %7 = add i32 %.012.i, %4
  %8 = tail call zeroext i8 @tvb_get_uint8(ptr noundef %3, i32 noundef %7)
  %.not.i = icmp eq i8 %8, 0
  %9 = add nuw nsw i32 %.012.i, 1
  br i1 %.not.i, label %get_null_terminated_string_length.exit, label %5, !llvm.loop !19

get_null_terminated_string_length.exit:           ; preds = %5, %6
  %spec.select.i = phi i32 [ %9, %6 ], [ 0, %5 ]
  %10 = load i32, ptr %1, align 4
  %11 = tail call ptr @ptvcursor_add(ptr noundef %0, i32 noundef %10, i32 noundef %spec.select.i, i32 noundef 2)
  ret void
}